
samd21-afe.elf:     file format elf32-littlearm

Sections:
Idx Name          Size      VMA       LMA       File off  Algn
  0 .text         00000e5c  00000000  00000000  00010000  2**2
                  CONTENTS, ALLOC, LOAD, READONLY, CODE
  1 .relocate     00000008  20000000  00000e5c  00020000  2**2
                  CONTENTS, ALLOC, LOAD, DATA
  2 .bss          000001b8  20000008  00000e64  00020008  2**2
                  ALLOC
  3 .stack        00002000  200001c0  0000101c  00020008  2**0
                  ALLOC
  4 .ARM.attributes 00000028  00000000  00000000  00020008  2**0
                  CONTENTS, READONLY
  5 .comment      00000059  00000000  00000000  00020030  2**0
                  CONTENTS, READONLY
  6 .debug_frame  0000002c  00000000  00000000  0002008c  2**2
                  CONTENTS, READONLY, DEBUGGING

Disassembly of section .text:

00000000 <exception_table>:
   0:	c0 21 00 20 ad 0c 00 00 a9 0c 00 00 a9 0c 00 00     .!. ............
	...
  2c:	a9 0c 00 00 00 00 00 00 00 00 00 00 a9 0c 00 00     ................
  3c:	a9 0c 00 00 a9 0c 00 00 a9 0c 00 00 a9 0c 00 00     ................
  4c:	a9 0c 00 00 85 08 00 00 a9 0c 00 00 a9 0c 00 00     ................
  5c:	75 02 00 00 a9 0c 00 00 25 08 00 00 35 08 00 00     u.......%...5...
  6c:	45 08 00 00 55 08 00 00 65 08 00 00 75 08 00 00     E...U...e...u...
  7c:	a9 0c 00 00 a9 0c 00 00 a9 0c 00 00 a9 0c 00 00     ................
  8c:	a9 0c 00 00 a9 0c 00 00 00 00 00 00 00 00 00 00     ................
  9c:	35 01 00 00 a9 0c 00 00 a9 0c 00 00 a9 0c 00 00     5...............
  ac:	a9 0c 00 00 00 00 00 00                             ........

000000b4 <__do_global_dtors_aux>:
  b4:	b510      	push	{r4, lr}
  b6:	4c06      	ldr	r4, [pc, #24]	; (d0 <__do_global_dtors_aux+0x1c>)
  b8:	7823      	ldrb	r3, [r4, #0]
  ba:	2b00      	cmp	r3, #0
  bc:	d107      	bne.n	ce <__do_global_dtors_aux+0x1a>
  be:	4b05      	ldr	r3, [pc, #20]	; (d4 <__do_global_dtors_aux+0x20>)
  c0:	2b00      	cmp	r3, #0
  c2:	d002      	beq.n	ca <__do_global_dtors_aux+0x16>
  c4:	4804      	ldr	r0, [pc, #16]	; (d8 <__do_global_dtors_aux+0x24>)
  c6:	e000      	b.n	ca <__do_global_dtors_aux+0x16>
  c8:	bf00      	nop
  ca:	2301      	movs	r3, #1
  cc:	7023      	strb	r3, [r4, #0]
  ce:	bd10      	pop	{r4, pc}
  d0:	20000008 	.word	0x20000008
  d4:	00000000 	.word	0x00000000
  d8:	00000e5c 	.word	0x00000e5c

000000dc <frame_dummy>:
  dc:	4b08      	ldr	r3, [pc, #32]	; (100 <frame_dummy+0x24>)
  de:	b510      	push	{r4, lr}
  e0:	2b00      	cmp	r3, #0
  e2:	d003      	beq.n	ec <frame_dummy+0x10>
  e4:	4907      	ldr	r1, [pc, #28]	; (104 <frame_dummy+0x28>)
  e6:	4808      	ldr	r0, [pc, #32]	; (108 <frame_dummy+0x2c>)
  e8:	e000      	b.n	ec <frame_dummy+0x10>
  ea:	bf00      	nop
  ec:	4807      	ldr	r0, [pc, #28]	; (10c <frame_dummy+0x30>)
  ee:	6803      	ldr	r3, [r0, #0]
  f0:	2b00      	cmp	r3, #0
  f2:	d100      	bne.n	f6 <frame_dummy+0x1a>
  f4:	bd10      	pop	{r4, pc}
  f6:	4b06      	ldr	r3, [pc, #24]	; (110 <frame_dummy+0x34>)
  f8:	2b00      	cmp	r3, #0
  fa:	d0fb      	beq.n	f4 <frame_dummy+0x18>
  fc:	4798      	blx	r3
  fe:	e7f9      	b.n	f4 <frame_dummy+0x18>
 100:	00000000 	.word	0x00000000
 104:	2000000c 	.word	0x2000000c
 108:	00000e5c 	.word	0x00000e5c
 10c:	00000e5c 	.word	0x00000e5c
 110:	00000000 	.word	0x00000000

00000114 <adc_start_conversion>:
 114:	6803      	ldr	r3, [r0, #0]
 116:	7e5a      	ldrb	r2, [r3, #25]
 118:	b252      	sxtb	r2, r2
 11a:	2a00      	cmp	r2, #0
 11c:	dbfb      	blt.n	116 <adc_start_conversion+0x2>
 11e:	2202      	movs	r2, #2
 120:	7b19      	ldrb	r1, [r3, #12]
 122:	430a      	orrs	r2, r1
 124:	731a      	strb	r2, [r3, #12]
 126:	6802      	ldr	r2, [r0, #0]
 128:	7e53      	ldrb	r3, [r2, #25]
 12a:	b25b      	sxtb	r3, r3
 12c:	2b00      	cmp	r3, #0
 12e:	dbfb      	blt.n	128 <adc_start_conversion+0x14>
 130:	4770      	bx	lr
	...

00000134 <ADC_Handler>:
 134:	b570      	push	{r4, r5, r6, lr}
 136:	4b28      	ldr	r3, [pc, #160]	; (1d8 <ADC_Handler+0xa4>)
 138:	681c      	ldr	r4, [r3, #0]
 13a:	6823      	ldr	r3, [r4, #0]
 13c:	7e1a      	ldrb	r2, [r3, #24]
 13e:	7ddd      	ldrb	r5, [r3, #23]
 140:	4015      	ands	r5, r2
 142:	2201      	movs	r2, #1
 144:	4215      	tst	r5, r2
 146:	d028      	beq.n	19a <ADC_Handler+0x66>
 148:	761a      	strb	r2, [r3, #24]
 14a:	6821      	ldr	r1, [r4, #0]
 14c:	7e4b      	ldrb	r3, [r1, #25]
 14e:	b25b      	sxtb	r3, r3
 150:	2b00      	cmp	r3, #0
 152:	dbfb      	blt.n	14c <ADC_Handler+0x18>
 154:	6962      	ldr	r2, [r4, #20]
 156:	1c93      	adds	r3, r2, #2
 158:	6163      	str	r3, [r4, #20]
 15a:	8b4b      	ldrh	r3, [r1, #26]
 15c:	b29b      	uxth	r3, r3
 15e:	8013      	strh	r3, [r2, #0]
 160:	8b23      	ldrh	r3, [r4, #24]
 162:	3b01      	subs	r3, #1
 164:	b29b      	uxth	r3, r3
 166:	8323      	strh	r3, [r4, #24]
 168:	2b00      	cmp	r3, #0
 16a:	d110      	bne.n	18e <ADC_Handler+0x5a>
 16c:	2201      	movs	r2, #1
 16e:	6821      	ldr	r1, [r4, #0]
 170:	758a      	strb	r2, [r1, #22]
 172:	7f21      	ldrb	r1, [r4, #28]
 174:	2905      	cmp	r1, #5
 176:	d110      	bne.n	19a <ADC_Handler+0x66>
 178:	7723      	strb	r3, [r4, #28]
 17a:	7ee3      	ldrb	r3, [r4, #27]
 17c:	4213      	tst	r3, r2
 17e:	d00c      	beq.n	19a <ADC_Handler+0x66>
 180:	7ea3      	ldrb	r3, [r4, #26]
 182:	4213      	tst	r3, r2
 184:	d009      	beq.n	19a <ADC_Handler+0x66>
 186:	0020      	movs	r0, r4
 188:	68a3      	ldr	r3, [r4, #8]
 18a:	4798      	blx	r3
 18c:	e005      	b.n	19a <ADC_Handler+0x66>
 18e:	7f63      	ldrb	r3, [r4, #29]
 190:	2b00      	cmp	r3, #0
 192:	d002      	beq.n	19a <ADC_Handler+0x66>
 194:	0020      	movs	r0, r4
 196:	4b11      	ldr	r3, [pc, #68]	; (1dc <ADC_Handler+0xa8>)
 198:	4798      	blx	r3
 19a:	2304      	movs	r3, #4
 19c:	421d      	tst	r5, r3
 19e:	d00b      	beq.n	1b8 <ADC_Handler+0x84>
 1a0:	6822      	ldr	r2, [r4, #0]
 1a2:	7613      	strb	r3, [r2, #24]
 1a4:	7ee2      	ldrb	r2, [r4, #27]
 1a6:	3b02      	subs	r3, #2
 1a8:	421a      	tst	r2, r3
 1aa:	d005      	beq.n	1b8 <ADC_Handler+0x84>
 1ac:	7ea2      	ldrb	r2, [r4, #26]
 1ae:	421a      	tst	r2, r3
 1b0:	d002      	beq.n	1b8 <ADC_Handler+0x84>
 1b2:	0020      	movs	r0, r4
 1b4:	68e3      	ldr	r3, [r4, #12]
 1b6:	4798      	blx	r3
 1b8:	2302      	movs	r3, #2
 1ba:	421d      	tst	r5, r3
 1bc:	d00b      	beq.n	1d6 <ADC_Handler+0xa2>
 1be:	6822      	ldr	r2, [r4, #0]
 1c0:	7613      	strb	r3, [r2, #24]
 1c2:	7ee2      	ldrb	r2, [r4, #27]
 1c4:	18db      	adds	r3, r3, r3
 1c6:	421a      	tst	r2, r3
 1c8:	d005      	beq.n	1d6 <ADC_Handler+0xa2>
 1ca:	7ea2      	ldrb	r2, [r4, #26]
 1cc:	421a      	tst	r2, r3
 1ce:	d002      	beq.n	1d6 <ADC_Handler+0xa2>
 1d0:	6923      	ldr	r3, [r4, #16]
 1d2:	0020      	movs	r0, r4
 1d4:	4798      	blx	r3
 1d6:	bd70      	pop	{r4, r5, r6, pc}
 1d8:	20000078 	.word	0x20000078
 1dc:	00000115 	.word	0x00000115

000001e0 <extint_is_syncing>:
 1e0:	4b01      	ldr	r3, [pc, #4]	; (1e8 <extint_is_syncing+0x8>)
 1e2:	7858      	ldrb	r0, [r3, #1]
 1e4:	09c0      	lsrs	r0, r0, #7
 1e6:	4770      	bx	lr
 1e8:	40001800 	.word	0x40001800

000001ec <_extint_enable>:
 1ec:	2302      	movs	r3, #2
 1ee:	b510      	push	{r4, lr}
 1f0:	4a04      	ldr	r2, [pc, #16]	; (204 <_extint_enable+0x18>)
 1f2:	7811      	ldrb	r1, [r2, #0]
 1f4:	430b      	orrs	r3, r1
 1f6:	7013      	strb	r3, [r2, #0]
 1f8:	4b03      	ldr	r3, [pc, #12]	; (208 <_extint_enable+0x1c>)
 1fa:	4798      	blx	r3
 1fc:	2800      	cmp	r0, #0
 1fe:	d1fb      	bne.n	1f8 <_extint_enable+0xc>
 200:	bd10      	pop	{r4, pc}
 202:	46c0      	nop			; (mov r8, r8)
 204:	40001800 	.word	0x40001800
 208:	000001e1 	.word	0x000001e1

0000020c <_system_extint_init>:
 20c:	2340      	movs	r3, #64	; 0x40
 20e:	b507      	push	{r0, r1, r2, lr}
 210:	4a10      	ldr	r2, [pc, #64]	; (254 <_system_extint_init+0x48>)
 212:	2005      	movs	r0, #5
 214:	6991      	ldr	r1, [r2, #24]
 216:	430b      	orrs	r3, r1
 218:	6193      	str	r3, [r2, #24]
 21a:	2300      	movs	r3, #0
 21c:	a901      	add	r1, sp, #4
 21e:	700b      	strb	r3, [r1, #0]
 220:	4b0d      	ldr	r3, [pc, #52]	; (258 <_system_extint_init+0x4c>)
 222:	4798      	blx	r3
 224:	4b0d      	ldr	r3, [pc, #52]	; (25c <_system_extint_init+0x50>)
 226:	2005      	movs	r0, #5
 228:	4798      	blx	r3
 22a:	2301      	movs	r3, #1
 22c:	4a0c      	ldr	r2, [pc, #48]	; (260 <_system_extint_init+0x54>)
 22e:	7811      	ldrb	r1, [r2, #0]
 230:	430b      	orrs	r3, r1
 232:	7013      	strb	r3, [r2, #0]
 234:	4b0b      	ldr	r3, [pc, #44]	; (264 <_system_extint_init+0x58>)
 236:	4798      	blx	r3
 238:	2800      	cmp	r0, #0
 23a:	d1fb      	bne.n	234 <_system_extint_init+0x28>
 23c:	0002      	movs	r2, r0
 23e:	4b0a      	ldr	r3, [pc, #40]	; (268 <_system_extint_init+0x5c>)
 240:	501a      	str	r2, [r3, r0]
 242:	3004      	adds	r0, #4
 244:	2840      	cmp	r0, #64	; 0x40
 246:	d1fb      	bne.n	240 <_system_extint_init+0x34>
 248:	2210      	movs	r2, #16
 24a:	4b08      	ldr	r3, [pc, #32]	; (26c <_system_extint_init+0x60>)
 24c:	601a      	str	r2, [r3, #0]
 24e:	4b08      	ldr	r3, [pc, #32]	; (270 <_system_extint_init+0x64>)
 250:	4798      	blx	r3
 252:	bd07      	pop	{r0, r1, r2, pc}
 254:	40000400 	.word	0x40000400
 258:	00000c5d 	.word	0x00000c5d
 25c:	00000bd5 	.word	0x00000bd5
 260:	40001800 	.word	0x40001800
 264:	000001e1 	.word	0x000001e1
 268:	2000007c 	.word	0x2000007c
 26c:	e000e100 	.word	0xe000e100
 270:	000001ed 	.word	0x000001ed

00000274 <USB_Handler>:
 274:	b5f0      	push	{r4, r5, r6, r7, lr}
 276:	4ed7      	ldr	r6, [pc, #860]	; (5d4 <USB_Handler+0x360>)
 278:	b085      	sub	sp, #20
 27a:	6837      	ldr	r7, [r6, #0]
 27c:	683d      	ldr	r5, [r7, #0]
 27e:	782b      	ldrb	r3, [r5, #0]
 280:	09db      	lsrs	r3, r3, #7
 282:	d100      	bne.n	286 <USB_Handler+0x12>
 284:	e122      	b.n	4cc <USB_Handler+0x258>
 286:	8c2b      	ldrh	r3, [r5, #32]
 288:	2b00      	cmp	r3, #0
 28a:	d100      	bne.n	28e <USB_Handler+0x1a>
 28c:	e22d      	b.n	6ea <USB_Handler+0x476>
 28e:	8c28      	ldrh	r0, [r5, #32]
 290:	4bd1      	ldr	r3, [pc, #836]	; (5d8 <USB_Handler+0x364>)
 292:	b280      	uxth	r0, r0
 294:	4798      	blx	r3
 296:	0003      	movs	r3, r0
 298:	0004      	movs	r4, r0
 29a:	2003      	movs	r0, #3
 29c:	3308      	adds	r3, #8
 29e:	015b      	lsls	r3, r3, #5
 2a0:	18ed      	adds	r5, r5, r3
 2a2:	79ed      	ldrb	r5, [r5, #7]
 2a4:	b2ea      	uxtb	r2, r5
 2a6:	9201      	str	r2, [sp, #4]
 2a8:	4202      	tst	r2, r0
 2aa:	d031      	beq.n	310 <USB_Handler+0x9c>
 2ac:	2101      	movs	r1, #1
 2ae:	4acb      	ldr	r2, [pc, #812]	; (5dc <USB_Handler+0x368>)
 2b0:	4694      	mov	ip, r2
 2b2:	000a      	movs	r2, r1
 2b4:	4665      	mov	r5, ip
 2b6:	40a2      	lsls	r2, r4
 2b8:	682d      	ldr	r5, [r5, #0]
 2ba:	4395      	bics	r5, r2
 2bc:	002a      	movs	r2, r5
 2be:	4665      	mov	r5, ip
 2c0:	602a      	str	r2, [r5, #0]
 2c2:	683a      	ldr	r2, [r7, #0]
 2c4:	18d2      	adds	r2, r2, r3
 2c6:	71d0      	strb	r0, [r2, #7]
 2c8:	193a      	adds	r2, r7, r4
 2ca:	32ae      	adds	r2, #174	; 0xae
 2cc:	7812      	ldrb	r2, [r2, #0]
 2ce:	420a      	tst	r2, r1
 2d0:	d01e      	beq.n	310 <USB_Handler+0x9c>
 2d2:	4ac3      	ldr	r2, [pc, #780]	; (5e0 <USB_Handler+0x36c>)
 2d4:	0160      	lsls	r0, r4, #5
 2d6:	7014      	strb	r4, [r2, #0]
 2d8:	6839      	ldr	r1, [r7, #0]
 2da:	5c59      	ldrb	r1, [r3, r1]
 2dc:	4bc1      	ldr	r3, [pc, #772]	; (5e4 <USB_Handler+0x370>)
 2de:	0789      	lsls	r1, r1, #30
 2e0:	0f89      	lsrs	r1, r1, #30
 2e2:	181b      	adds	r3, r3, r0
 2e4:	2901      	cmp	r1, #1
 2e6:	d000      	beq.n	2ea <USB_Handler+0x76>
 2e8:	e0b4      	b.n	454 <USB_Handler+0x1e0>
 2ea:	6859      	ldr	r1, [r3, #4]
 2ec:	0489      	lsls	r1, r1, #18
 2ee:	0c89      	lsrs	r1, r1, #18
 2f0:	8051      	strh	r1, [r2, #2]
 2f2:	6859      	ldr	r1, [r3, #4]
 2f4:	0109      	lsls	r1, r1, #4
 2f6:	0c89      	lsrs	r1, r1, #18
 2f8:	8091      	strh	r1, [r2, #4]
 2fa:	685a      	ldr	r2, [r3, #4]
 2fc:	0b92      	lsrs	r2, r2, #14
 2fe:	0392      	lsls	r2, r2, #14
 300:	605a      	str	r2, [r3, #4]
 302:	1ca3      	adds	r3, r4, #2
 304:	011b      	lsls	r3, r3, #4
 306:	18fb      	adds	r3, r7, r3
 308:	685b      	ldr	r3, [r3, #4]
 30a:	49b5      	ldr	r1, [pc, #724]	; (5e0 <USB_Handler+0x36c>)
 30c:	0038      	movs	r0, r7
 30e:	4798      	blx	r3
 310:	2304      	movs	r3, #4
 312:	9a01      	ldr	r2, [sp, #4]
 314:	421a      	tst	r2, r3
 316:	d038      	beq.n	38a <USB_Handler+0x116>
 318:	0022      	movs	r2, r4
 31a:	4bae      	ldr	r3, [pc, #696]	; (5d4 <USB_Handler+0x360>)
 31c:	3208      	adds	r2, #8
 31e:	6818      	ldr	r0, [r3, #0]
 320:	0153      	lsls	r3, r2, #5
 322:	6801      	ldr	r1, [r0, #0]
 324:	469c      	mov	ip, r3
 326:	5c5b      	ldrb	r3, [r3, r1]
 328:	069b      	lsls	r3, r3, #26
 32a:	0f5b      	lsrs	r3, r3, #29
 32c:	9302      	str	r3, [sp, #8]
 32e:	2b02      	cmp	r3, #2
 330:	d000      	beq.n	334 <USB_Handler+0xc0>
 332:	e0a4      	b.n	47e <USB_Handler+0x20a>
 334:	4663      	mov	r3, ip
 336:	5c5b      	ldrb	r3, [r3, r1]
 338:	079b      	lsls	r3, r3, #30
 33a:	0f9b      	lsrs	r3, r3, #30
 33c:	2b01      	cmp	r3, #1
 33e:	d000      	beq.n	342 <USB_Handler+0xce>
 340:	e09d      	b.n	47e <USB_Handler+0x20a>
 342:	4fa8      	ldr	r7, [pc, #672]	; (5e4 <USB_Handler+0x370>)
 344:	0165      	lsls	r5, r4, #5
 346:	197d      	adds	r5, r7, r5
 348:	002f      	movs	r7, r5
 34a:	9503      	str	r5, [sp, #12]
 34c:	3708      	adds	r7, #8
 34e:	78bf      	ldrb	r7, [r7, #2]
 350:	07fd      	lsls	r5, r7, #31
 352:	d400      	bmi.n	356 <USB_Handler+0xe2>
 354:	e093      	b.n	47e <USB_Handler+0x20a>
 356:	40a3      	lsls	r3, r4
 358:	4aa0      	ldr	r2, [pc, #640]	; (5dc <USB_Handler+0x368>)
 35a:	6811      	ldr	r1, [r2, #0]
 35c:	4399      	bics	r1, r3
 35e:	2300      	movs	r3, #0
 360:	6011      	str	r1, [r2, #0]
 362:	9a03      	ldr	r2, [sp, #12]
 364:	7293      	strb	r3, [r2, #10]
 366:	2204      	movs	r2, #4
 368:	6803      	ldr	r3, [r0, #0]
 36a:	4463      	add	r3, ip
 36c:	71da      	strb	r2, [r3, #7]
 36e:	1903      	adds	r3, r0, r4
 370:	33ae      	adds	r3, #174	; 0xae
 372:	781b      	ldrb	r3, [r3, #0]
 374:	9a02      	ldr	r2, [sp, #8]
 376:	4213      	tst	r3, r2
 378:	d007      	beq.n	38a <USB_Handler+0x116>
 37a:	2310      	movs	r3, #16
 37c:	4998      	ldr	r1, [pc, #608]	; (5e0 <USB_Handler+0x36c>)
 37e:	704b      	strb	r3, [r1, #1]
 380:	0123      	lsls	r3, r4, #4
 382:	18c3      	adds	r3, r0, r3
 384:	700c      	strb	r4, [r1, #0]
 386:	6a9b      	ldr	r3, [r3, #40]	; 0x28
 388:	4798      	blx	r3
 38a:	2208      	movs	r2, #8
 38c:	9b01      	ldr	r3, [sp, #4]
 38e:	4213      	tst	r3, r2
 390:	d01d      	beq.n	3ce <USB_Handler+0x15a>
 392:	2301      	movs	r3, #1
 394:	40a3      	lsls	r3, r4
 396:	4991      	ldr	r1, [pc, #580]	; (5dc <USB_Handler+0x368>)
 398:	6808      	ldr	r0, [r1, #0]
 39a:	4398      	bics	r0, r3
 39c:	6008      	str	r0, [r1, #0]
 39e:	6830      	ldr	r0, [r6, #0]
 3a0:	18a3      	adds	r3, r4, r2
 3a2:	6801      	ldr	r1, [r0, #0]
 3a4:	015b      	lsls	r3, r3, #5
 3a6:	18cb      	adds	r3, r1, r3
 3a8:	71da      	strb	r2, [r3, #7]
 3aa:	1903      	adds	r3, r0, r4
 3ac:	33ae      	adds	r3, #174	; 0xae
 3ae:	781b      	ldrb	r3, [r3, #0]
 3b0:	079b      	lsls	r3, r3, #30
 3b2:	d50c      	bpl.n	3ce <USB_Handler+0x15a>
 3b4:	4b8b      	ldr	r3, [pc, #556]	; (5e4 <USB_Handler+0x370>)
 3b6:	0162      	lsls	r2, r4, #5
 3b8:	189b      	adds	r3, r3, r2
 3ba:	221f      	movs	r2, #31
 3bc:	89db      	ldrh	r3, [r3, #14]
 3be:	4988      	ldr	r1, [pc, #544]	; (5e0 <USB_Handler+0x36c>)
 3c0:	4013      	ands	r3, r2
 3c2:	704b      	strb	r3, [r1, #1]
 3c4:	0123      	lsls	r3, r4, #4
 3c6:	18c3      	adds	r3, r0, r3
 3c8:	700c      	strb	r4, [r1, #0]
 3ca:	6a9b      	ldr	r3, [r3, #40]	; 0x28
 3cc:	4798      	blx	r3
 3ce:	2210      	movs	r2, #16
 3d0:	9b01      	ldr	r3, [sp, #4]
 3d2:	4213      	tst	r3, r2
 3d4:	d01f      	beq.n	416 <USB_Handler+0x1a2>
 3d6:	2301      	movs	r3, #1
 3d8:	40a3      	lsls	r3, r4
 3da:	4980      	ldr	r1, [pc, #512]	; (5dc <USB_Handler+0x368>)
 3dc:	6808      	ldr	r0, [r1, #0]
 3de:	4398      	bics	r0, r3
 3e0:	0023      	movs	r3, r4
 3e2:	6008      	str	r0, [r1, #0]
 3e4:	6830      	ldr	r0, [r6, #0]
 3e6:	3308      	adds	r3, #8
 3e8:	6801      	ldr	r1, [r0, #0]
 3ea:	015b      	lsls	r3, r3, #5
 3ec:	18cb      	adds	r3, r1, r3
 3ee:	71da      	strb	r2, [r3, #7]
 3f0:	1903      	adds	r3, r0, r4
 3f2:	33ae      	adds	r3, #174	; 0xae
 3f4:	781b      	ldrb	r3, [r3, #0]
 3f6:	075b      	lsls	r3, r3, #29
 3f8:	d50d      	bpl.n	416 <USB_Handler+0x1a2>
 3fa:	4a79      	ldr	r2, [pc, #484]	; (5e0 <USB_Handler+0x36c>)
 3fc:	4b79      	ldr	r3, [pc, #484]	; (5e4 <USB_Handler+0x370>)
 3fe:	0161      	lsls	r1, r4, #5
 400:	185b      	adds	r3, r3, r1
 402:	7014      	strb	r4, [r2, #0]
 404:	685b      	ldr	r3, [r3, #4]
 406:	2100      	movs	r1, #0
 408:	011b      	lsls	r3, r3, #4
 40a:	0c9b      	lsrs	r3, r3, #18
 40c:	8053      	strh	r3, [r2, #2]
 40e:	0123      	lsls	r3, r4, #4
 410:	18c3      	adds	r3, r0, r3
 412:	6adb      	ldr	r3, [r3, #44]	; 0x2c
 414:	4798      	blx	r3
 416:	2220      	movs	r2, #32
 418:	9b01      	ldr	r3, [sp, #4]
 41a:	4213      	tst	r3, r2
 41c:	d100      	bne.n	420 <USB_Handler+0x1ac>
 41e:	e1f9      	b.n	814 <USB_Handler+0x5a0>
 420:	2301      	movs	r3, #1
 422:	40a3      	lsls	r3, r4
 424:	496d      	ldr	r1, [pc, #436]	; (5dc <USB_Handler+0x368>)
 426:	6808      	ldr	r0, [r1, #0]
 428:	4398      	bics	r0, r3
 42a:	0023      	movs	r3, r4
 42c:	6008      	str	r0, [r1, #0]
 42e:	6830      	ldr	r0, [r6, #0]
 430:	3308      	adds	r3, #8
 432:	6801      	ldr	r1, [r0, #0]
 434:	015b      	lsls	r3, r3, #5
 436:	18cb      	adds	r3, r1, r3
 438:	71da      	strb	r2, [r3, #7]
 43a:	1903      	adds	r3, r0, r4
 43c:	33ae      	adds	r3, #174	; 0xae
 43e:	781b      	ldrb	r3, [r3, #0]
 440:	071b      	lsls	r3, r3, #28
 442:	d400      	bmi.n	446 <USB_Handler+0x1d2>
 444:	e1e6      	b.n	814 <USB_Handler+0x5a0>
 446:	4966      	ldr	r1, [pc, #408]	; (5e0 <USB_Handler+0x36c>)
 448:	700c      	strb	r4, [r1, #0]
 44a:	0124      	lsls	r4, r4, #4
 44c:	1904      	adds	r4, r0, r4
 44e:	6b23      	ldr	r3, [r4, #48]	; 0x30
 450:	4798      	blx	r3
 452:	e1df      	b.n	814 <USB_Handler+0x5a0>
 454:	6859      	ldr	r1, [r3, #4]
 456:	4d64      	ldr	r5, [pc, #400]	; (5e8 <USB_Handler+0x374>)
 458:	0109      	lsls	r1, r1, #4
 45a:	0c89      	lsrs	r1, r1, #18
 45c:	8051      	strh	r1, [r2, #2]
 45e:	b288      	uxth	r0, r1
 460:	6859      	ldr	r1, [r3, #4]
 462:	0489      	lsls	r1, r1, #18
 464:	0c89      	lsrs	r1, r1, #18
 466:	8091      	strh	r1, [r2, #4]
 468:	6859      	ldr	r1, [r3, #4]
 46a:	4029      	ands	r1, r5
 46c:	6059      	str	r1, [r3, #4]
 46e:	2800      	cmp	r0, #0
 470:	d000      	beq.n	474 <USB_Handler+0x200>
 472:	e746      	b.n	302 <USB_Handler+0x8e>
 474:	685b      	ldr	r3, [r3, #4]
 476:	049b      	lsls	r3, r3, #18
 478:	0c9b      	lsrs	r3, r3, #18
 47a:	8053      	strh	r3, [r2, #2]
 47c:	e741      	b.n	302 <USB_Handler+0x8e>
 47e:	0152      	lsls	r2, r2, #5
 480:	5c53      	ldrb	r3, [r2, r1]
 482:	4d58      	ldr	r5, [pc, #352]	; (5e4 <USB_Handler+0x370>)
 484:	069b      	lsls	r3, r3, #26
 486:	0f5b      	lsrs	r3, r3, #29
 488:	46ac      	mov	ip, r5
 48a:	0167      	lsls	r7, r4, #5
 48c:	2b03      	cmp	r3, #3
 48e:	d111      	bne.n	4b4 <USB_Handler+0x240>
 490:	5c53      	ldrb	r3, [r2, r1]
 492:	079b      	lsls	r3, r3, #30
 494:	0f9b      	lsrs	r3, r3, #30
 496:	2b01      	cmp	r3, #1
 498:	d10c      	bne.n	4b4 <USB_Handler+0x240>
 49a:	0039      	movs	r1, r7
 49c:	2300      	movs	r3, #0
 49e:	4461      	add	r1, ip
 4a0:	728b      	strb	r3, [r1, #10]
 4a2:	2104      	movs	r1, #4
 4a4:	6803      	ldr	r3, [r0, #0]
 4a6:	189b      	adds	r3, r3, r2
 4a8:	71d9      	strb	r1, [r3, #7]
 4aa:	6803      	ldr	r3, [r0, #0]
 4ac:	189a      	adds	r2, r3, r2
 4ae:	2310      	movs	r3, #16
 4b0:	7153      	strb	r3, [r2, #5]
 4b2:	e76a      	b.n	38a <USB_Handler+0x116>
 4b4:	003a      	movs	r2, r7
 4b6:	2300      	movs	r3, #0
 4b8:	4462      	add	r2, ip
 4ba:	7293      	strb	r3, [r2, #10]
 4bc:	0022      	movs	r2, r4
 4be:	6803      	ldr	r3, [r0, #0]
 4c0:	3208      	adds	r2, #8
 4c2:	0152      	lsls	r2, r2, #5
 4c4:	189b      	adds	r3, r3, r2
 4c6:	2204      	movs	r2, #4
 4c8:	71da      	strb	r2, [r3, #7]
 4ca:	e75e      	b.n	38a <USB_Handler+0x116>
 4cc:	8c2c      	ldrh	r4, [r5, #32]
 4ce:	b2a2      	uxth	r2, r4
 4d0:	9201      	str	r2, [sp, #4]
 4d2:	2a00      	cmp	r2, #0
 4d4:	d12c      	bne.n	530 <USB_Handler+0x2bc>
 4d6:	8bab      	ldrh	r3, [r5, #28]
 4d8:	3255      	adds	r2, #85	; 0x55
 4da:	b29b      	uxth	r3, r3
 4dc:	9302      	str	r3, [sp, #8]
 4de:	23ab      	movs	r3, #171	; 0xab
 4e0:	32ff      	adds	r2, #255	; 0xff
 4e2:	005b      	lsls	r3, r3, #1
 4e4:	5afb      	ldrh	r3, [r7, r3]
 4e6:	5abd      	ldrh	r5, [r7, r2]
 4e8:	2780      	movs	r7, #128	; 0x80
 4ea:	401d      	ands	r5, r3
 4ec:	9b02      	ldr	r3, [sp, #8]
 4ee:	9c01      	ldr	r4, [sp, #4]
 4f0:	401d      	ands	r5, r3
 4f2:	007f      	lsls	r7, r7, #1
 4f4:	4b3d      	ldr	r3, [pc, #244]	; (5ec <USB_Handler+0x378>)
 4f6:	0062      	lsls	r2, r4, #1
 4f8:	5ad3      	ldrh	r3, [r2, r3]
 4fa:	9a02      	ldr	r2, [sp, #8]
 4fc:	4213      	tst	r3, r2
 4fe:	d002      	beq.n	506 <USB_Handler+0x292>
 500:	6832      	ldr	r2, [r6, #0]
 502:	6812      	ldr	r2, [r2, #0]
 504:	8393      	strh	r3, [r2, #28]
 506:	422b      	tst	r3, r5
 508:	d00e      	beq.n	528 <USB_Handler+0x2b4>
 50a:	4939      	ldr	r1, [pc, #228]	; (5f0 <USB_Handler+0x37c>)
 50c:	2c06      	cmp	r4, #6
 50e:	d104      	bne.n	51a <USB_Handler+0x2a6>
 510:	4b34      	ldr	r3, [pc, #208]	; (5e4 <USB_Handler+0x370>)
 512:	891b      	ldrh	r3, [r3, #8]
 514:	091b      	lsrs	r3, r3, #4
 516:	403b      	ands	r3, r7
 518:	600b      	str	r3, [r1, #0]
 51a:	0023      	movs	r3, r4
 51c:	6832      	ldr	r2, [r6, #0]
 51e:	332e      	adds	r3, #46	; 0x2e
 520:	009b      	lsls	r3, r3, #2
 522:	589b      	ldr	r3, [r3, r2]
 524:	0010      	movs	r0, r2
 526:	4798      	blx	r3
 528:	3401      	adds	r4, #1
 52a:	2c07      	cmp	r4, #7
 52c:	d1e2      	bne.n	4f4 <USB_Handler+0x280>
 52e:	e171      	b.n	814 <USB_Handler+0x5a0>
 530:	003e      	movs	r6, r7
 532:	3659      	adds	r6, #89	; 0x59
 534:	36ff      	adds	r6, #255	; 0xff
 536:	9a01      	ldr	r2, [sp, #4]
 538:	2101      	movs	r1, #1
 53a:	411a      	asrs	r2, r3
 53c:	b2dc      	uxtb	r4, r3
 53e:	420a      	tst	r2, r1
 540:	d100      	bne.n	544 <USB_Handler+0x2d0>
 542:	e0cc      	b.n	6de <USB_Handler+0x46a>
 544:	001a      	movs	r2, r3
 546:	3208      	adds	r2, #8
 548:	0151      	lsls	r1, r2, #5
 54a:	1869      	adds	r1, r5, r1
 54c:	1dc8      	adds	r0, r1, #7
 54e:	9003      	str	r0, [sp, #12]
 550:	79c8      	ldrb	r0, [r1, #7]
 552:	7a31      	ldrb	r1, [r6, #8]
 554:	9202      	str	r2, [sp, #8]
 556:	b2c0      	uxtb	r0, r0
 558:	7832      	ldrb	r2, [r6, #0]
 55a:	4001      	ands	r1, r0
 55c:	4011      	ands	r1, r2
 55e:	2260      	movs	r2, #96	; 0x60
 560:	4210      	tst	r0, r2
 562:	d01a      	beq.n	59a <USB_Handler+0x326>
 564:	015a      	lsls	r2, r3, #5
 566:	18ad      	adds	r5, r5, r2
 568:	2240      	movs	r2, #64	; 0x40
 56a:	35ff      	adds	r5, #255	; 0xff
 56c:	7a28      	ldrb	r0, [r5, #8]
 56e:	4210      	tst	r0, r2
 570:	d00d      	beq.n	58e <USB_Handler+0x31a>
 572:	722a      	strb	r2, [r5, #8]
 574:	3ac0      	subs	r2, #192	; 0xc0
 576:	4314      	orrs	r4, r2
 578:	4a1e      	ldr	r2, [pc, #120]	; (5f4 <USB_Handler+0x380>)
 57a:	7194      	strb	r4, [r2, #6]
 57c:	2260      	movs	r2, #96	; 0x60
 57e:	4211      	tst	r1, r2
 580:	d100      	bne.n	584 <USB_Handler+0x310>
 582:	e147      	b.n	814 <USB_Handler+0x5a0>
 584:	011b      	lsls	r3, r3, #4
 586:	18fb      	adds	r3, r7, r3
 588:	33e0      	adds	r3, #224	; 0xe0
 58a:	681b      	ldr	r3, [r3, #0]
 58c:	e052      	b.n	634 <USB_Handler+0x3c0>
 58e:	2220      	movs	r2, #32
 590:	7a28      	ldrb	r0, [r5, #8]
 592:	4210      	tst	r0, r2
 594:	d0f2      	beq.n	57c <USB_Handler+0x308>
 596:	722a      	strb	r2, [r5, #8]
 598:	e7ee      	b.n	578 <USB_Handler+0x304>
 59a:	2210      	movs	r2, #16
 59c:	4210      	tst	r0, r2
 59e:	d02b      	beq.n	5f8 <USB_Handler+0x384>
 5a0:	2110      	movs	r1, #16
 5a2:	9a03      	ldr	r2, [sp, #12]
 5a4:	7011      	strb	r1, [r2, #0]
 5a6:	2110      	movs	r1, #16
 5a8:	18fa      	adds	r2, r7, r3
 5aa:	3261      	adds	r2, #97	; 0x61
 5ac:	32ff      	adds	r2, #255	; 0xff
 5ae:	7812      	ldrb	r2, [r2, #0]
 5b0:	420a      	tst	r2, r1
 5b2:	d100      	bne.n	5b6 <USB_Handler+0x342>
 5b4:	e12e      	b.n	814 <USB_Handler+0x5a0>
 5b6:	4a0b      	ldr	r2, [pc, #44]	; (5e4 <USB_Handler+0x370>)
 5b8:	0159      	lsls	r1, r3, #5
 5ba:	1852      	adds	r2, r2, r1
 5bc:	6852      	ldr	r2, [r2, #4]
 5be:	011b      	lsls	r3, r3, #4
 5c0:	18fb      	adds	r3, r7, r3
 5c2:	0492      	lsls	r2, r2, #18
 5c4:	490b      	ldr	r1, [pc, #44]	; (5f4 <USB_Handler+0x380>)
 5c6:	33dc      	adds	r3, #220	; 0xdc
 5c8:	0c92      	lsrs	r2, r2, #18
 5ca:	681b      	ldr	r3, [r3, #0]
 5cc:	800a      	strh	r2, [r1, #0]
 5ce:	0038      	movs	r0, r7
 5d0:	e73e      	b.n	450 <USB_Handler+0x1dc>
 5d2:	46c0      	nop			; (mov r8, r8)
 5d4:	20000024 	.word	0x20000024
 5d8:	00000da5 	.word	0x00000da5
 5dc:	20000034 	.word	0x20000034
 5e0:	20000038 	.word	0x20000038
 5e4:	200000bc 	.word	0x200000bc
 5e8:	f0003fff 	.word	0xf0003fff
 5ec:	00000e2c 	.word	0x00000e2c
 5f0:	20000028 	.word	0x20000028
 5f4:	2000002c 	.word	0x2000002c
 5f8:	2203      	movs	r2, #3
 5fa:	4210      	tst	r0, r2
 5fc:	d02e      	beq.n	65c <USB_Handler+0x3e8>
 5fe:	2002      	movs	r0, #2
 600:	015a      	lsls	r2, r3, #5
 602:	18ad      	adds	r5, r5, r2
 604:	35ff      	adds	r5, #255	; 0xff
 606:	7a2e      	ldrb	r6, [r5, #8]
 608:	4206      	tst	r6, r0
 60a:	d015      	beq.n	638 <USB_Handler+0x3c4>
 60c:	7228      	strb	r0, [r5, #8]
 60e:	2580      	movs	r5, #128	; 0x80
 610:	4881      	ldr	r0, [pc, #516]	; (818 <USB_Handler+0x5a4>)
 612:	426d      	negs	r5, r5
 614:	432c      	orrs	r4, r5
 616:	7184      	strb	r4, [r0, #6]
 618:	4c80      	ldr	r4, [pc, #512]	; (81c <USB_Handler+0x5a8>)
 61a:	18a2      	adds	r2, r4, r2
 61c:	3210      	adds	r2, #16
 61e:	6852      	ldr	r2, [r2, #4]
 620:	0492      	lsls	r2, r2, #18
 622:	0c92      	lsrs	r2, r2, #18
 624:	8042      	strh	r2, [r0, #2]
 626:	078a      	lsls	r2, r1, #30
 628:	d100      	bne.n	62c <USB_Handler+0x3b8>
 62a:	e0f3      	b.n	814 <USB_Handler+0x5a0>
 62c:	330d      	adds	r3, #13
 62e:	011b      	lsls	r3, r3, #4
 630:	18fb      	adds	r3, r7, r3
 632:	685b      	ldr	r3, [r3, #4]
 634:	4978      	ldr	r1, [pc, #480]	; (818 <USB_Handler+0x5a4>)
 636:	e7ca      	b.n	5ce <USB_Handler+0x35a>
 638:	2601      	movs	r6, #1
 63a:	7a28      	ldrb	r0, [r5, #8]
 63c:	4230      	tst	r0, r6
 63e:	d0f2      	beq.n	626 <USB_Handler+0x3b2>
 640:	4875      	ldr	r0, [pc, #468]	; (818 <USB_Handler+0x5a4>)
 642:	722e      	strb	r6, [r5, #8]
 644:	7184      	strb	r4, [r0, #6]
 646:	4c75      	ldr	r4, [pc, #468]	; (81c <USB_Handler+0x5a8>)
 648:	18a4      	adds	r4, r4, r2
 64a:	6862      	ldr	r2, [r4, #4]
 64c:	0492      	lsls	r2, r2, #18
 64e:	0c92      	lsrs	r2, r2, #18
 650:	8002      	strh	r2, [r0, #0]
 652:	6862      	ldr	r2, [r4, #4]
 654:	0112      	lsls	r2, r2, #4
 656:	0c92      	lsrs	r2, r2, #18
 658:	8082      	strh	r2, [r0, #4]
 65a:	e7e4      	b.n	626 <USB_Handler+0x3b2>
 65c:	220c      	movs	r2, #12
 65e:	4210      	tst	r0, r2
 660:	d03d      	beq.n	6de <USB_Handler+0x46a>
 662:	2008      	movs	r0, #8
 664:	015e      	lsls	r6, r3, #5
 666:	19ad      	adds	r5, r5, r6
 668:	35ff      	adds	r5, #255	; 0xff
 66a:	7a2a      	ldrb	r2, [r5, #8]
 66c:	4202      	tst	r2, r0
 66e:	d01e      	beq.n	6ae <USB_Handler+0x43a>
 670:	7228      	strb	r0, [r5, #8]
 672:	486a      	ldr	r0, [pc, #424]	; (81c <USB_Handler+0x5a8>)
 674:	1980      	adds	r0, r0, r6
 676:	2602      	movs	r6, #2
 678:	7e85      	ldrb	r5, [r0, #26]
 67a:	4235      	tst	r5, r6
 67c:	d002      	beq.n	684 <USB_Handler+0x410>
 67e:	7e85      	ldrb	r5, [r0, #26]
 680:	43b5      	bics	r5, r6
 682:	7685      	strb	r5, [r0, #26]
 684:	2080      	movs	r0, #128	; 0x80
 686:	4240      	negs	r0, r0
 688:	4304      	orrs	r4, r0
 68a:	4863      	ldr	r0, [pc, #396]	; (818 <USB_Handler+0x5a4>)
 68c:	9a02      	ldr	r2, [sp, #8]
 68e:	7184      	strb	r4, [r0, #6]
 690:	6838      	ldr	r0, [r7, #0]
 692:	0152      	lsls	r2, r2, #5
 694:	1882      	adds	r2, r0, r2
 696:	79d2      	ldrb	r2, [r2, #7]
 698:	0792      	lsls	r2, r2, #30
 69a:	d500      	bpl.n	69e <USB_Handler+0x42a>
 69c:	e0ba      	b.n	814 <USB_Handler+0x5a0>
 69e:	220c      	movs	r2, #12
 6a0:	4211      	tst	r1, r2
 6a2:	d100      	bne.n	6a6 <USB_Handler+0x432>
 6a4:	e0b6      	b.n	814 <USB_Handler+0x5a0>
 6a6:	011b      	lsls	r3, r3, #4
 6a8:	18fb      	adds	r3, r7, r3
 6aa:	33d8      	adds	r3, #216	; 0xd8
 6ac:	e76d      	b.n	58a <USB_Handler+0x316>
 6ae:	2004      	movs	r0, #4
 6b0:	7a2a      	ldrb	r2, [r5, #8]
 6b2:	4202      	tst	r2, r0
 6b4:	d0f3      	beq.n	69e <USB_Handler+0x42a>
 6b6:	7228      	strb	r0, [r5, #8]
 6b8:	4858      	ldr	r0, [pc, #352]	; (81c <USB_Handler+0x5a8>)
 6ba:	1980      	adds	r0, r0, r6
 6bc:	2602      	movs	r6, #2
 6be:	7a85      	ldrb	r5, [r0, #10]
 6c0:	4235      	tst	r5, r6
 6c2:	d002      	beq.n	6ca <USB_Handler+0x456>
 6c4:	7a85      	ldrb	r5, [r0, #10]
 6c6:	43b5      	bics	r5, r6
 6c8:	7285      	strb	r5, [r0, #10]
 6ca:	4853      	ldr	r0, [pc, #332]	; (818 <USB_Handler+0x5a4>)
 6cc:	9a02      	ldr	r2, [sp, #8]
 6ce:	7184      	strb	r4, [r0, #6]
 6d0:	6838      	ldr	r0, [r7, #0]
 6d2:	0152      	lsls	r2, r2, #5
 6d4:	1882      	adds	r2, r0, r2
 6d6:	79d2      	ldrb	r2, [r2, #7]
 6d8:	07d2      	lsls	r2, r2, #31
 6da:	d5e0      	bpl.n	69e <USB_Handler+0x42a>
 6dc:	e09a      	b.n	814 <USB_Handler+0x5a0>
 6de:	3301      	adds	r3, #1
 6e0:	3601      	adds	r6, #1
 6e2:	2b08      	cmp	r3, #8
 6e4:	d000      	beq.n	6e8 <USB_Handler+0x474>
 6e6:	e726      	b.n	536 <USB_Handler+0x2c2>
 6e8:	e094      	b.n	814 <USB_Handler+0x5a0>
 6ea:	2304      	movs	r3, #4
 6ec:	8bac      	ldrh	r4, [r5, #28]
 6ee:	b2a4      	uxth	r4, r4
 6f0:	421c      	tst	r4, r3
 6f2:	d026      	beq.n	742 <USB_Handler+0x4ce>
 6f4:	83ab      	strh	r3, [r5, #28]
 6f6:	4b4a      	ldr	r3, [pc, #296]	; (820 <USB_Handler+0x5ac>)
 6f8:	681b      	ldr	r3, [r3, #0]
 6fa:	469c      	mov	ip, r3
 6fc:	2301      	movs	r3, #1
 6fe:	001d      	movs	r5, r3
 700:	002a      	movs	r2, r5
 702:	4661      	mov	r1, ip
 704:	409a      	lsls	r2, r3
 706:	4211      	tst	r1, r2
 708:	d010      	beq.n	72c <USB_Handler+0x4b8>
 70a:	0019      	movs	r1, r3
 70c:	683a      	ldr	r2, [r7, #0]
 70e:	3108      	adds	r1, #8
 710:	0149      	lsls	r1, r1, #5
 712:	5c88      	ldrb	r0, [r1, r2]
 714:	0680      	lsls	r0, r0, #26
 716:	0f40      	lsrs	r0, r0, #29
 718:	2803      	cmp	r0, #3
 71a:	d107      	bne.n	72c <USB_Handler+0x4b8>
 71c:	5c88      	ldrb	r0, [r1, r2]
 71e:	0780      	lsls	r0, r0, #30
 720:	0f80      	lsrs	r0, r0, #30
 722:	2801      	cmp	r0, #1
 724:	d102      	bne.n	72c <USB_Handler+0x4b8>
 726:	1852      	adds	r2, r2, r1
 728:	2110      	movs	r1, #16
 72a:	7111      	strb	r1, [r2, #4]
 72c:	3301      	adds	r3, #1
 72e:	2b08      	cmp	r3, #8
 730:	d1e6      	bne.n	700 <USB_Handler+0x48c>
 732:	003b      	movs	r3, r7
 734:	33a5      	adds	r3, #165	; 0xa5
 736:	781b      	ldrb	r3, [r3, #0]
 738:	07db      	lsls	r3, r3, #31
 73a:	d502      	bpl.n	742 <USB_Handler+0x4ce>
 73c:	687b      	ldr	r3, [r7, #4]
 73e:	0038      	movs	r0, r7
 740:	4798      	blx	r3
 742:	2308      	movs	r3, #8
 744:	421c      	tst	r4, r3
 746:	d00c      	beq.n	762 <USB_Handler+0x4ee>
 748:	2100      	movs	r1, #0
 74a:	4a35      	ldr	r2, [pc, #212]	; (820 <USB_Handler+0x5ac>)
 74c:	6830      	ldr	r0, [r6, #0]
 74e:	6011      	str	r1, [r2, #0]
 750:	6802      	ldr	r2, [r0, #0]
 752:	8393      	strh	r3, [r2, #28]
 754:	0003      	movs	r3, r0
 756:	33a5      	adds	r3, #165	; 0xa5
 758:	781b      	ldrb	r3, [r3, #0]
 75a:	079b      	lsls	r3, r3, #30
 75c:	d501      	bpl.n	762 <USB_Handler+0x4ee>
 75e:	6883      	ldr	r3, [r0, #8]
 760:	4798      	blx	r3
 762:	2340      	movs	r3, #64	; 0x40
 764:	421c      	tst	r4, r3
 766:	d009      	beq.n	77c <USB_Handler+0x508>
 768:	6830      	ldr	r0, [r6, #0]
 76a:	6802      	ldr	r2, [r0, #0]
 76c:	8393      	strh	r3, [r2, #28]
 76e:	0003      	movs	r3, r0
 770:	33a5      	adds	r3, #165	; 0xa5
 772:	781b      	ldrb	r3, [r3, #0]
 774:	06db      	lsls	r3, r3, #27
 776:	d501      	bpl.n	77c <USB_Handler+0x508>
 778:	6943      	ldr	r3, [r0, #20]
 77a:	4798      	blx	r3
 77c:	2320      	movs	r3, #32
 77e:	421c      	tst	r4, r3
 780:	d009      	beq.n	796 <USB_Handler+0x522>
 782:	6830      	ldr	r0, [r6, #0]
 784:	6802      	ldr	r2, [r0, #0]
 786:	8393      	strh	r3, [r2, #28]
 788:	0003      	movs	r3, r0
 78a:	33a5      	adds	r3, #165	; 0xa5
 78c:	781b      	ldrb	r3, [r3, #0]
 78e:	071b      	lsls	r3, r3, #28
 790:	d501      	bpl.n	796 <USB_Handler+0x522>
 792:	6903      	ldr	r3, [r0, #16]
 794:	4798      	blx	r3
 796:	2310      	movs	r3, #16
 798:	421c      	tst	r4, r3
 79a:	d009      	beq.n	7b0 <USB_Handler+0x53c>
 79c:	6830      	ldr	r0, [r6, #0]
 79e:	6802      	ldr	r2, [r0, #0]
 7a0:	8393      	strh	r3, [r2, #28]
 7a2:	0003      	movs	r3, r0
 7a4:	33a5      	adds	r3, #165	; 0xa5
 7a6:	781b      	ldrb	r3, [r3, #0]
 7a8:	075b      	lsls	r3, r3, #29
 7aa:	d501      	bpl.n	7b0 <USB_Handler+0x53c>
 7ac:	68c3      	ldr	r3, [r0, #12]
 7ae:	4798      	blx	r3
 7b0:	2380      	movs	r3, #128	; 0x80
 7b2:	421c      	tst	r4, r3
 7b4:	d00c      	beq.n	7d0 <USB_Handler+0x55c>
 7b6:	2100      	movs	r1, #0
 7b8:	4a19      	ldr	r2, [pc, #100]	; (820 <USB_Handler+0x5ac>)
 7ba:	6830      	ldr	r0, [r6, #0]
 7bc:	6011      	str	r1, [r2, #0]
 7be:	6802      	ldr	r2, [r0, #0]
 7c0:	8393      	strh	r3, [r2, #28]
 7c2:	0003      	movs	r3, r0
 7c4:	33a5      	adds	r3, #165	; 0xa5
 7c6:	781b      	ldrb	r3, [r3, #0]
 7c8:	069b      	lsls	r3, r3, #26
 7ca:	d501      	bpl.n	7d0 <USB_Handler+0x55c>
 7cc:	6983      	ldr	r3, [r0, #24]
 7ce:	4798      	blx	r3
 7d0:	2380      	movs	r3, #128	; 0x80
 7d2:	005b      	lsls	r3, r3, #1
 7d4:	421c      	tst	r4, r3
 7d6:	d00c      	beq.n	7f2 <USB_Handler+0x57e>
 7d8:	2100      	movs	r1, #0
 7da:	4a11      	ldr	r2, [pc, #68]	; (820 <USB_Handler+0x5ac>)
 7dc:	6830      	ldr	r0, [r6, #0]
 7de:	6011      	str	r1, [r2, #0]
 7e0:	6802      	ldr	r2, [r0, #0]
 7e2:	8393      	strh	r3, [r2, #28]
 7e4:	0003      	movs	r3, r0
 7e6:	33a5      	adds	r3, #165	; 0xa5
 7e8:	781b      	ldrb	r3, [r3, #0]
 7ea:	065b      	lsls	r3, r3, #25
 7ec:	d501      	bpl.n	7f2 <USB_Handler+0x57e>
 7ee:	69c3      	ldr	r3, [r0, #28]
 7f0:	4798      	blx	r3
 7f2:	2380      	movs	r3, #128	; 0x80
 7f4:	009b      	lsls	r3, r3, #2
 7f6:	421c      	tst	r4, r3
 7f8:	d00c      	beq.n	814 <USB_Handler+0x5a0>
 7fa:	2100      	movs	r1, #0
 7fc:	4a08      	ldr	r2, [pc, #32]	; (820 <USB_Handler+0x5ac>)
 7fe:	6830      	ldr	r0, [r6, #0]
 800:	6011      	str	r1, [r2, #0]
 802:	6802      	ldr	r2, [r0, #0]
 804:	8393      	strh	r3, [r2, #28]
 806:	0003      	movs	r3, r0
 808:	33a5      	adds	r3, #165	; 0xa5
 80a:	781b      	ldrb	r3, [r3, #0]
 80c:	2b7f      	cmp	r3, #127	; 0x7f
 80e:	d901      	bls.n	814 <USB_Handler+0x5a0>
 810:	6a03      	ldr	r3, [r0, #32]
 812:	4798      	blx	r3
 814:	b005      	add	sp, #20
 816:	bdf0      	pop	{r4, r5, r6, r7, pc}
 818:	2000002c 	.word	0x2000002c
 81c:	200000bc 	.word	0x200000bc
 820:	20000034 	.word	0x20000034

00000824 <SERCOM0_Handler>:
 824:	b510      	push	{r4, lr}
 826:	4b02      	ldr	r3, [pc, #8]	; (830 <SERCOM0_Handler+0xc>)
 828:	2000      	movs	r0, #0
 82a:	681b      	ldr	r3, [r3, #0]
 82c:	4798      	blx	r3
 82e:	bd10      	pop	{r4, pc}
 830:	20000040 	.word	0x20000040

00000834 <SERCOM1_Handler>:
 834:	b510      	push	{r4, lr}
 836:	4b02      	ldr	r3, [pc, #8]	; (840 <SERCOM1_Handler+0xc>)
 838:	2001      	movs	r0, #1
 83a:	685b      	ldr	r3, [r3, #4]
 83c:	4798      	blx	r3
 83e:	bd10      	pop	{r4, pc}
 840:	20000040 	.word	0x20000040

00000844 <SERCOM2_Handler>:
 844:	b510      	push	{r4, lr}
 846:	4b02      	ldr	r3, [pc, #8]	; (850 <SERCOM2_Handler+0xc>)
 848:	2002      	movs	r0, #2
 84a:	689b      	ldr	r3, [r3, #8]
 84c:	4798      	blx	r3
 84e:	bd10      	pop	{r4, pc}
 850:	20000040 	.word	0x20000040

00000854 <SERCOM3_Handler>:
 854:	b510      	push	{r4, lr}
 856:	4b02      	ldr	r3, [pc, #8]	; (860 <SERCOM3_Handler+0xc>)
 858:	2003      	movs	r0, #3
 85a:	68db      	ldr	r3, [r3, #12]
 85c:	4798      	blx	r3
 85e:	bd10      	pop	{r4, pc}
 860:	20000040 	.word	0x20000040

00000864 <SERCOM4_Handler>:
 864:	b510      	push	{r4, lr}
 866:	4b02      	ldr	r3, [pc, #8]	; (870 <SERCOM4_Handler+0xc>)
 868:	2004      	movs	r0, #4
 86a:	691b      	ldr	r3, [r3, #16]
 86c:	4798      	blx	r3
 86e:	bd10      	pop	{r4, pc}
 870:	20000040 	.word	0x20000040

00000874 <SERCOM5_Handler>:
 874:	b510      	push	{r4, lr}
 876:	4b02      	ldr	r3, [pc, #8]	; (880 <SERCOM5_Handler+0xc>)
 878:	2005      	movs	r0, #5
 87a:	695b      	ldr	r3, [r3, #20]
 87c:	4798      	blx	r3
 87e:	bd10      	pop	{r4, pc}
 880:	20000040 	.word	0x20000040

00000884 <EIC_Handler>:
 884:	2300      	movs	r3, #0
 886:	b570      	push	{r4, r5, r6, lr}
 888:	2501      	movs	r5, #1
 88a:	4c0b      	ldr	r4, [pc, #44]	; (8b8 <EIC_Handler+0x34>)
 88c:	7023      	strb	r3, [r4, #0]
 88e:	7823      	ldrb	r3, [r4, #0]
 890:	2b0f      	cmp	r3, #15
 892:	d900      	bls.n	896 <EIC_Handler+0x12>
 894:	bd70      	pop	{r4, r5, r6, pc}
 896:	0029      	movs	r1, r5
 898:	4099      	lsls	r1, r3
 89a:	4a08      	ldr	r2, [pc, #32]	; (8bc <EIC_Handler+0x38>)
 89c:	6910      	ldr	r0, [r2, #16]
 89e:	4208      	tst	r0, r1
 8a0:	d006      	beq.n	8b0 <EIC_Handler+0x2c>
 8a2:	6111      	str	r1, [r2, #16]
 8a4:	4a06      	ldr	r2, [pc, #24]	; (8c0 <EIC_Handler+0x3c>)
 8a6:	009b      	lsls	r3, r3, #2
 8a8:	589b      	ldr	r3, [r3, r2]
 8aa:	2b00      	cmp	r3, #0
 8ac:	d000      	beq.n	8b0 <EIC_Handler+0x2c>
 8ae:	4798      	blx	r3
 8b0:	7823      	ldrb	r3, [r4, #0]
 8b2:	3301      	adds	r3, #1
 8b4:	7023      	strb	r3, [r4, #0]
 8b6:	e7ea      	b.n	88e <EIC_Handler+0xa>
 8b8:	200001bc 	.word	0x200001bc
 8bc:	40001800 	.word	0x40001800
 8c0:	2000007c 	.word	0x2000007c

000008c4 <delay_cycles_ms>:
 8c4:	b530      	push	{r4, r5, lr}
 8c6:	2480      	movs	r4, #128	; 0x80
 8c8:	2100      	movs	r1, #0
 8ca:	4b07      	ldr	r3, [pc, #28]	; (8e8 <delay_cycles_ms+0x24>)
 8cc:	0264      	lsls	r4, r4, #9
 8ce:	681a      	ldr	r2, [r3, #0]
 8d0:	4b06      	ldr	r3, [pc, #24]	; (8ec <delay_cycles_ms+0x28>)
 8d2:	3801      	subs	r0, #1
 8d4:	d200      	bcs.n	8d8 <delay_cycles_ms+0x14>
 8d6:	bd30      	pop	{r4, r5, pc}
 8d8:	2a00      	cmp	r2, #0
 8da:	d0fa      	beq.n	8d2 <delay_cycles_ms+0xe>
 8dc:	605a      	str	r2, [r3, #4]
 8de:	6099      	str	r1, [r3, #8]
 8e0:	681d      	ldr	r5, [r3, #0]
 8e2:	4225      	tst	r5, r4
 8e4:	d0fc      	beq.n	8e0 <delay_cycles_ms+0x1c>
 8e6:	e7f4      	b.n	8d2 <delay_cycles_ms+0xe>
 8e8:	20000000 	.word	0x20000000
 8ec:	e000e010 	.word	0xe000e010

000008f0 <system_board_init>:
 8f0:	4770      	bx	lr
	...

000008f4 <cpu_irq_enter_critical>:
 8f4:	4b09      	ldr	r3, [pc, #36]	; (91c <cpu_irq_enter_critical+0x28>)
 8f6:	6819      	ldr	r1, [r3, #0]
 8f8:	2900      	cmp	r1, #0
 8fa:	d10b      	bne.n	914 <cpu_irq_enter_critical+0x20>
 8fc:	f3ef 8010 	mrs	r0, PRIMASK
 900:	4a07      	ldr	r2, [pc, #28]	; (920 <cpu_irq_enter_critical+0x2c>)
 902:	2800      	cmp	r0, #0
 904:	d105      	bne.n	912 <cpu_irq_enter_critical+0x1e>
 906:	b672      	cpsid	i
 908:	f3bf 8f5f 	dmb	sy
 90c:	4905      	ldr	r1, [pc, #20]	; (924 <cpu_irq_enter_critical+0x30>)
 90e:	7008      	strb	r0, [r1, #0]
 910:	2101      	movs	r1, #1
 912:	7011      	strb	r1, [r2, #0]
 914:	681a      	ldr	r2, [r3, #0]
 916:	3201      	adds	r2, #1
 918:	601a      	str	r2, [r3, #0]
 91a:	4770      	bx	lr
 91c:	20000058 	.word	0x20000058
 920:	2000005c 	.word	0x2000005c
 924:	20000004 	.word	0x20000004

00000928 <cpu_irq_leave_critical>:
 928:	4b08      	ldr	r3, [pc, #32]	; (94c <cpu_irq_leave_critical+0x24>)
 92a:	681a      	ldr	r2, [r3, #0]
 92c:	3a01      	subs	r2, #1
 92e:	601a      	str	r2, [r3, #0]
 930:	681b      	ldr	r3, [r3, #0]
 932:	2b00      	cmp	r3, #0
 934:	d109      	bne.n	94a <cpu_irq_leave_critical+0x22>
 936:	4b06      	ldr	r3, [pc, #24]	; (950 <cpu_irq_leave_critical+0x28>)
 938:	781b      	ldrb	r3, [r3, #0]
 93a:	2b00      	cmp	r3, #0
 93c:	d005      	beq.n	94a <cpu_irq_leave_critical+0x22>
 93e:	2201      	movs	r2, #1
 940:	4b04      	ldr	r3, [pc, #16]	; (954 <cpu_irq_leave_critical+0x2c>)
 942:	701a      	strb	r2, [r3, #0]
 944:	f3bf 8f5f 	dmb	sy
 948:	b662      	cpsie	i
 94a:	4770      	bx	lr
 94c:	20000058 	.word	0x20000058
 950:	2000005c 	.word	0x2000005c
 954:	20000004 	.word	0x20000004

00000958 <_system_dfll_wait_for_sync>:
 958:	2310      	movs	r3, #16
 95a:	4902      	ldr	r1, [pc, #8]	; (964 <_system_dfll_wait_for_sync+0xc>)
 95c:	68ca      	ldr	r2, [r1, #12]
 95e:	421a      	tst	r2, r3
 960:	d0fc      	beq.n	95c <_system_dfll_wait_for_sync+0x4>
 962:	4770      	bx	lr
 964:	40000800 	.word	0x40000800

00000968 <system_clock_source_osc8m_set_config>:
 968:	b570      	push	{r4, r5, r6, lr}
 96a:	7884      	ldrb	r4, [r0, #2]
 96c:	7802      	ldrb	r2, [r0, #0]
 96e:	7845      	ldrb	r5, [r0, #1]
 970:	2001      	movs	r0, #1
 972:	2640      	movs	r6, #64	; 0x40
 974:	4005      	ands	r5, r0
 976:	4020      	ands	r0, r4
 978:	2480      	movs	r4, #128	; 0x80
 97a:	4908      	ldr	r1, [pc, #32]	; (99c <system_clock_source_osc8m_set_config+0x34>)
 97c:	01ad      	lsls	r5, r5, #6
 97e:	6a0b      	ldr	r3, [r1, #32]
 980:	01c0      	lsls	r0, r0, #7
 982:	43b3      	bics	r3, r6
 984:	432b      	orrs	r3, r5
 986:	43a3      	bics	r3, r4
 988:	4303      	orrs	r3, r0
 98a:	2003      	movs	r0, #3
 98c:	4002      	ands	r2, r0
 98e:	4804      	ldr	r0, [pc, #16]	; (9a0 <system_clock_source_osc8m_set_config+0x38>)
 990:	0212      	lsls	r2, r2, #8
 992:	4003      	ands	r3, r0
 994:	4313      	orrs	r3, r2
 996:	620b      	str	r3, [r1, #32]
 998:	bd70      	pop	{r4, r5, r6, pc}
 99a:	46c0      	nop			; (mov r8, r8)
 99c:	40000800 	.word	0x40000800
 9a0:	fffffcff 	.word	0xfffffcff

000009a4 <system_clock_source_enable>:
 9a4:	b5f8      	push	{r3, r4, r5, r6, r7, lr}
 9a6:	2808      	cmp	r0, #8
 9a8:	d806      	bhi.n	9b8 <system_clock_source_enable+0x14>
 9aa:	f000 f9f1 	bl	d90 <__gnu_thumb1_case_uqi>
 9ae:	0514      	.short	0x0514
 9b0:	1a0e0c05 	.word	0x1a0e0c05
 9b4:	2007      	.short	0x2007
 9b6:	34          	.byte	0x34
 9b7:	00          	.byte	0x00
 9b8:	2017      	movs	r0, #23
 9ba:	bdf8      	pop	{r3, r4, r5, r6, r7, pc}
 9bc:	2302      	movs	r3, #2
 9be:	4a19      	ldr	r2, [pc, #100]	; (a24 <system_clock_source_enable+0x80>)
 9c0:	6a11      	ldr	r1, [r2, #32]
 9c2:	430b      	orrs	r3, r1
 9c4:	6213      	str	r3, [r2, #32]
 9c6:	2000      	movs	r0, #0
 9c8:	e7f7      	b.n	9ba <system_clock_source_enable+0x16>
 9ca:	2302      	movs	r3, #2
 9cc:	4a15      	ldr	r2, [pc, #84]	; (a24 <system_clock_source_enable+0x80>)
 9ce:	6991      	ldr	r1, [r2, #24]
 9d0:	430b      	orrs	r3, r1
 9d2:	6193      	str	r3, [r2, #24]
 9d4:	e7f7      	b.n	9c6 <system_clock_source_enable+0x22>
 9d6:	2302      	movs	r3, #2
 9d8:	4a12      	ldr	r2, [pc, #72]	; (a24 <system_clock_source_enable+0x80>)
 9da:	8a11      	ldrh	r1, [r2, #16]
 9dc:	430b      	orrs	r3, r1
 9de:	8213      	strh	r3, [r2, #16]
 9e0:	e7f1      	b.n	9c6 <system_clock_source_enable+0x22>
 9e2:	2302      	movs	r3, #2
 9e4:	4a0f      	ldr	r2, [pc, #60]	; (a24 <system_clock_source_enable+0x80>)
 9e6:	8a91      	ldrh	r1, [r2, #20]
 9e8:	430b      	orrs	r3, r1
 9ea:	8293      	strh	r3, [r2, #20]
 9ec:	e7eb      	b.n	9c6 <system_clock_source_enable+0x22>
 9ee:	2202      	movs	r2, #2
 9f0:	2400      	movs	r4, #0
 9f2:	4e0d      	ldr	r6, [pc, #52]	; (a28 <system_clock_source_enable+0x84>)
 9f4:	4d0b      	ldr	r5, [pc, #44]	; (a24 <system_clock_source_enable+0x80>)
 9f6:	6833      	ldr	r3, [r6, #0]
 9f8:	4f0c      	ldr	r7, [pc, #48]	; (a2c <system_clock_source_enable+0x88>)
 9fa:	4313      	orrs	r3, r2
 9fc:	6033      	str	r3, [r6, #0]
 9fe:	84aa      	strh	r2, [r5, #36]	; 0x24
 a00:	47b8      	blx	r7
 a02:	68b3      	ldr	r3, [r6, #8]
 a04:	62eb      	str	r3, [r5, #44]	; 0x2c
 a06:	6873      	ldr	r3, [r6, #4]
 a08:	62ab      	str	r3, [r5, #40]	; 0x28
 a0a:	84ac      	strh	r4, [r5, #36]	; 0x24
 a0c:	47b8      	blx	r7
 a0e:	6833      	ldr	r3, [r6, #0]
 a10:	b29b      	uxth	r3, r3
 a12:	84ab      	strh	r3, [r5, #36]	; 0x24
 a14:	e7d7      	b.n	9c6 <system_clock_source_enable+0x22>
 a16:	2302      	movs	r3, #2
 a18:	4a05      	ldr	r2, [pc, #20]	; (a30 <system_clock_source_enable+0x8c>)
 a1a:	7811      	ldrb	r1, [r2, #0]
 a1c:	430b      	orrs	r3, r1
 a1e:	7013      	strb	r3, [r2, #0]
 a20:	e7d1      	b.n	9c6 <system_clock_source_enable+0x22>
 a22:	46c0      	nop			; (mov r8, r8)
 a24:	40000800 	.word	0x40000800
 a28:	20000060 	.word	0x20000060
 a2c:	00000959 	.word	0x00000959
 a30:	40000844 	.word	0x40000844

00000a34 <system_clock_init>:
 a34:	b57f      	push	{r0, r1, r2, r3, r4, r5, r6, lr}
 a36:	22c2      	movs	r2, #194	; 0xc2
 a38:	211e      	movs	r1, #30
 a3a:	4b19      	ldr	r3, [pc, #100]	; (aa0 <system_clock_init+0x6c>)
 a3c:	00d2      	lsls	r2, r2, #3
 a3e:	609a      	str	r2, [r3, #8]
 a40:	4a18      	ldr	r2, [pc, #96]	; (aa4 <system_clock_init+0x70>)
 a42:	2400      	movs	r4, #0
 a44:	6853      	ldr	r3, [r2, #4]
 a46:	ad01      	add	r5, sp, #4
 a48:	438b      	bics	r3, r1
 a4a:	6053      	str	r3, [r2, #4]
 a4c:	2301      	movs	r3, #1
 a4e:	702b      	strb	r3, [r5, #0]
 a50:	b2e0      	uxtb	r0, r4
 a52:	0029      	movs	r1, r5
 a54:	4b14      	ldr	r3, [pc, #80]	; (aa8 <system_clock_init+0x74>)
 a56:	3401      	adds	r4, #1
 a58:	4798      	blx	r3
 a5a:	2c25      	cmp	r4, #37	; 0x25
 a5c:	d1f8      	bne.n	a50 <system_clock_init+0x1c>
 a5e:	2400      	movs	r4, #0
 a60:	466b      	mov	r3, sp
 a62:	2601      	movs	r6, #1
 a64:	705c      	strb	r4, [r3, #1]
 a66:	709e      	strb	r6, [r3, #2]
 a68:	701c      	strb	r4, [r3, #0]
 a6a:	4668      	mov	r0, sp
 a6c:	4b0f      	ldr	r3, [pc, #60]	; (aac <system_clock_init+0x78>)
 a6e:	4798      	blx	r3
 a70:	4b0f      	ldr	r3, [pc, #60]	; (ab0 <system_clock_init+0x7c>)
 a72:	2006      	movs	r0, #6
 a74:	4798      	blx	r3
 a76:	4b0f      	ldr	r3, [pc, #60]	; (ab4 <system_clock_init+0x80>)
 a78:	4798      	blx	r3
 a7a:	4b0f      	ldr	r3, [pc, #60]	; (ab8 <system_clock_init+0x84>)
 a7c:	0029      	movs	r1, r5
 a7e:	721c      	strb	r4, [r3, #8]
 a80:	725c      	strb	r4, [r3, #9]
 a82:	729c      	strb	r4, [r3, #10]
 a84:	72dc      	strb	r4, [r3, #11]
 a86:	2306      	movs	r3, #6
 a88:	0020      	movs	r0, r4
 a8a:	702b      	strb	r3, [r5, #0]
 a8c:	4b0b      	ldr	r3, [pc, #44]	; (abc <system_clock_init+0x88>)
 a8e:	606e      	str	r6, [r5, #4]
 a90:	706c      	strb	r4, [r5, #1]
 a92:	722c      	strb	r4, [r5, #8]
 a94:	726c      	strb	r4, [r5, #9]
 a96:	4798      	blx	r3
 a98:	0020      	movs	r0, r4
 a9a:	4b09      	ldr	r3, [pc, #36]	; (ac0 <system_clock_init+0x8c>)
 a9c:	4798      	blx	r3
 a9e:	bd7f      	pop	{r0, r1, r2, r3, r4, r5, r6, pc}
 aa0:	40000800 	.word	0x40000800
 aa4:	41004000 	.word	0x41004000
 aa8:	00000c5d 	.word	0x00000c5d
 aac:	00000969 	.word	0x00000969
 ab0:	000009a5 	.word	0x000009a5
 ab4:	00000ad1 	.word	0x00000ad1
 ab8:	40000400 	.word	0x40000400
 abc:	00000af1 	.word	0x00000af1
 ac0:	00000b95 	.word	0x00000b95

00000ac4 <system_gclk_is_syncing>:
 ac4:	4b01      	ldr	r3, [pc, #4]	; (acc <system_gclk_is_syncing+0x8>)
 ac6:	7858      	ldrb	r0, [r3, #1]
 ac8:	09c0      	lsrs	r0, r0, #7
 aca:	4770      	bx	lr
 acc:	40000c00 	.word	0x40000c00

00000ad0 <system_gclk_init>:
 ad0:	2308      	movs	r3, #8
 ad2:	4a05      	ldr	r2, [pc, #20]	; (ae8 <system_gclk_init+0x18>)
 ad4:	6991      	ldr	r1, [r2, #24]
 ad6:	430b      	orrs	r3, r1
 ad8:	6193      	str	r3, [r2, #24]
 ada:	2301      	movs	r3, #1
 adc:	4a03      	ldr	r2, [pc, #12]	; (aec <system_gclk_init+0x1c>)
 ade:	7013      	strb	r3, [r2, #0]
 ae0:	7811      	ldrb	r1, [r2, #0]
 ae2:	4219      	tst	r1, r3
 ae4:	d1fc      	bne.n	ae0 <system_gclk_init+0x10>
 ae6:	4770      	bx	lr
 ae8:	40000400 	.word	0x40000400
 aec:	40000c00 	.word	0x40000c00

00000af0 <system_gclk_gen_set_config>:
 af0:	b5f8      	push	{r3, r4, r5, r6, r7, lr}
 af2:	780c      	ldrb	r4, [r1, #0]
 af4:	784b      	ldrb	r3, [r1, #1]
 af6:	0224      	lsls	r4, r4, #8
 af8:	0006      	movs	r6, r0
 afa:	0005      	movs	r5, r0
 afc:	4304      	orrs	r4, r0
 afe:	2b00      	cmp	r3, #0
 b00:	d002      	beq.n	b08 <system_gclk_gen_set_config+0x18>
 b02:	2380      	movs	r3, #128	; 0x80
 b04:	02db      	lsls	r3, r3, #11
 b06:	431c      	orrs	r4, r3
 b08:	7a4b      	ldrb	r3, [r1, #9]
 b0a:	2b00      	cmp	r3, #0
 b0c:	d002      	beq.n	b14 <system_gclk_gen_set_config+0x24>
 b0e:	2380      	movs	r3, #128	; 0x80
 b10:	031b      	lsls	r3, r3, #12
 b12:	431c      	orrs	r4, r3
 b14:	684b      	ldr	r3, [r1, #4]
 b16:	2b01      	cmp	r3, #1
 b18:	d912      	bls.n	b40 <system_gclk_gen_set_config+0x50>
 b1a:	1e5d      	subs	r5, r3, #1
 b1c:	401d      	ands	r5, r3
 b1e:	2202      	movs	r2, #2
 b20:	2d00      	cmp	r5, #0
 b22:	d006      	beq.n	b32 <system_gclk_gen_set_config+0x42>
 b24:	021d      	lsls	r5, r3, #8
 b26:	2380      	movs	r3, #128	; 0x80
 b28:	4335      	orrs	r5, r6
 b2a:	029b      	lsls	r3, r3, #10
 b2c:	e007      	b.n	b3e <system_gclk_gen_set_config+0x4e>
 b2e:	3501      	adds	r5, #1
 b30:	0052      	lsls	r2, r2, #1
 b32:	429a      	cmp	r2, r3
 b34:	d3fb      	bcc.n	b2e <system_gclk_gen_set_config+0x3e>
 b36:	2380      	movs	r3, #128	; 0x80
 b38:	022d      	lsls	r5, r5, #8
 b3a:	4335      	orrs	r5, r6
 b3c:	035b      	lsls	r3, r3, #13
 b3e:	431c      	orrs	r4, r3
 b40:	7a0b      	ldrb	r3, [r1, #8]
 b42:	2b00      	cmp	r3, #0
 b44:	d002      	beq.n	b4c <system_gclk_gen_set_config+0x5c>
 b46:	2380      	movs	r3, #128	; 0x80
 b48:	039b      	lsls	r3, r3, #14
 b4a:	431c      	orrs	r4, r3
 b4c:	4f0c      	ldr	r7, [pc, #48]	; (b80 <system_gclk_gen_set_config+0x90>)
 b4e:	47b8      	blx	r7
 b50:	2800      	cmp	r0, #0
 b52:	d1fb      	bne.n	b4c <system_gclk_gen_set_config+0x5c>
 b54:	4b0b      	ldr	r3, [pc, #44]	; (b84 <system_gclk_gen_set_config+0x94>)
 b56:	4798      	blx	r3
 b58:	4b0b      	ldr	r3, [pc, #44]	; (b88 <system_gclk_gen_set_config+0x98>)
 b5a:	701e      	strb	r6, [r3, #0]
 b5c:	47b8      	blx	r7
 b5e:	2800      	cmp	r0, #0
 b60:	d1fc      	bne.n	b5c <system_gclk_gen_set_config+0x6c>
 b62:	4b0a      	ldr	r3, [pc, #40]	; (b8c <system_gclk_gen_set_config+0x9c>)
 b64:	609d      	str	r5, [r3, #8]
 b66:	001d      	movs	r5, r3
 b68:	47b8      	blx	r7
 b6a:	2800      	cmp	r0, #0
 b6c:	d1fc      	bne.n	b68 <system_gclk_gen_set_config+0x78>
 b6e:	2280      	movs	r2, #128	; 0x80
 b70:	686b      	ldr	r3, [r5, #4]
 b72:	0252      	lsls	r2, r2, #9
 b74:	4013      	ands	r3, r2
 b76:	431c      	orrs	r4, r3
 b78:	606c      	str	r4, [r5, #4]
 b7a:	4b05      	ldr	r3, [pc, #20]	; (b90 <system_gclk_gen_set_config+0xa0>)
 b7c:	4798      	blx	r3
 b7e:	bdf8      	pop	{r3, r4, r5, r6, r7, pc}
 b80:	00000ac5 	.word	0x00000ac5
 b84:	000008f5 	.word	0x000008f5
 b88:	40000c08 	.word	0x40000c08
 b8c:	40000c00 	.word	0x40000c00
 b90:	00000929 	.word	0x00000929

00000b94 <system_gclk_gen_enable>:
 b94:	b570      	push	{r4, r5, r6, lr}
 b96:	0005      	movs	r5, r0
 b98:	4c09      	ldr	r4, [pc, #36]	; (bc0 <system_gclk_gen_enable+0x2c>)
 b9a:	47a0      	blx	r4
 b9c:	2800      	cmp	r0, #0
 b9e:	d1fb      	bne.n	b98 <system_gclk_gen_enable+0x4>
 ba0:	4b08      	ldr	r3, [pc, #32]	; (bc4 <system_gclk_gen_enable+0x30>)
 ba2:	4798      	blx	r3
 ba4:	4b08      	ldr	r3, [pc, #32]	; (bc8 <system_gclk_gen_enable+0x34>)
 ba6:	701d      	strb	r5, [r3, #0]
 ba8:	47a0      	blx	r4
 baa:	2800      	cmp	r0, #0
 bac:	d1fc      	bne.n	ba8 <system_gclk_gen_enable+0x14>
 bae:	2380      	movs	r3, #128	; 0x80
 bb0:	4a06      	ldr	r2, [pc, #24]	; (bcc <system_gclk_gen_enable+0x38>)
 bb2:	025b      	lsls	r3, r3, #9
 bb4:	6851      	ldr	r1, [r2, #4]
 bb6:	430b      	orrs	r3, r1
 bb8:	6053      	str	r3, [r2, #4]
 bba:	4b05      	ldr	r3, [pc, #20]	; (bd0 <system_gclk_gen_enable+0x3c>)
 bbc:	4798      	blx	r3
 bbe:	bd70      	pop	{r4, r5, r6, pc}
 bc0:	00000ac5 	.word	0x00000ac5
 bc4:	000008f5 	.word	0x000008f5
 bc8:	40000c04 	.word	0x40000c04
 bcc:	40000c00 	.word	0x40000c00
 bd0:	00000929 	.word	0x00000929

00000bd4 <system_gclk_chan_enable>:
 bd4:	b510      	push	{r4, lr}
 bd6:	0004      	movs	r4, r0
 bd8:	4b06      	ldr	r3, [pc, #24]	; (bf4 <system_gclk_chan_enable+0x20>)
 bda:	4798      	blx	r3
 bdc:	4b06      	ldr	r3, [pc, #24]	; (bf8 <system_gclk_chan_enable+0x24>)
 bde:	4a07      	ldr	r2, [pc, #28]	; (bfc <system_gclk_chan_enable+0x28>)
 be0:	701c      	strb	r4, [r3, #0]
 be2:	2380      	movs	r3, #128	; 0x80
 be4:	8851      	ldrh	r1, [r2, #2]
 be6:	01db      	lsls	r3, r3, #7
 be8:	430b      	orrs	r3, r1
 bea:	8053      	strh	r3, [r2, #2]
 bec:	4b04      	ldr	r3, [pc, #16]	; (c00 <system_gclk_chan_enable+0x2c>)
 bee:	4798      	blx	r3
 bf0:	bd10      	pop	{r4, pc}
 bf2:	46c0      	nop			; (mov r8, r8)
 bf4:	000008f5 	.word	0x000008f5
 bf8:	40000c02 	.word	0x40000c02
 bfc:	40000c00 	.word	0x40000c00
 c00:	00000929 	.word	0x00000929

00000c04 <system_gclk_chan_disable>:
 c04:	b510      	push	{r4, lr}
 c06:	0004      	movs	r4, r0
 c08:	4b0e      	ldr	r3, [pc, #56]	; (c44 <system_gclk_chan_disable+0x40>)
 c0a:	4798      	blx	r3
 c0c:	4b0e      	ldr	r3, [pc, #56]	; (c48 <system_gclk_chan_disable+0x44>)
 c0e:	4a0f      	ldr	r2, [pc, #60]	; (c4c <system_gclk_chan_disable+0x48>)
 c10:	701c      	strb	r4, [r3, #0]
 c12:	4b0f      	ldr	r3, [pc, #60]	; (c50 <system_gclk_chan_disable+0x4c>)
 c14:	4c0f      	ldr	r4, [pc, #60]	; (c54 <system_gclk_chan_disable+0x50>)
 c16:	8858      	ldrh	r0, [r3, #2]
 c18:	8859      	ldrh	r1, [r3, #2]
 c1a:	0500      	lsls	r0, r0, #20
 c1c:	4011      	ands	r1, r2
 c1e:	8059      	strh	r1, [r3, #2]
 c20:	8859      	ldrh	r1, [r3, #2]
 c22:	0f00      	lsrs	r0, r0, #28
 c24:	4021      	ands	r1, r4
 c26:	8059      	strh	r1, [r3, #2]
 c28:	0011      	movs	r1, r2
 c2a:	2280      	movs	r2, #128	; 0x80
 c2c:	01d2      	lsls	r2, r2, #7
 c2e:	885c      	ldrh	r4, [r3, #2]
 c30:	4214      	tst	r4, r2
 c32:	d1fc      	bne.n	c2e <system_gclk_chan_disable+0x2a>
 c34:	885a      	ldrh	r2, [r3, #2]
 c36:	0200      	lsls	r0, r0, #8
 c38:	400a      	ands	r2, r1
 c3a:	4302      	orrs	r2, r0
 c3c:	805a      	strh	r2, [r3, #2]
 c3e:	4b06      	ldr	r3, [pc, #24]	; (c58 <system_gclk_chan_disable+0x54>)
 c40:	4798      	blx	r3
 c42:	bd10      	pop	{r4, pc}
 c44:	000008f5 	.word	0x000008f5
 c48:	40000c02 	.word	0x40000c02
 c4c:	fffff0ff 	.word	0xfffff0ff
 c50:	40000c00 	.word	0x40000c00
 c54:	ffffbfff 	.word	0xffffbfff
 c58:	00000929 	.word	0x00000929

00000c5c <system_gclk_chan_set_config>:
 c5c:	b510      	push	{r4, lr}
 c5e:	780c      	ldrb	r4, [r1, #0]
 c60:	4b03      	ldr	r3, [pc, #12]	; (c70 <system_gclk_chan_set_config+0x14>)
 c62:	0224      	lsls	r4, r4, #8
 c64:	4304      	orrs	r4, r0
 c66:	4798      	blx	r3
 c68:	4b02      	ldr	r3, [pc, #8]	; (c74 <system_gclk_chan_set_config+0x18>)
 c6a:	b2a4      	uxth	r4, r4
 c6c:	805c      	strh	r4, [r3, #2]
 c6e:	bd10      	pop	{r4, pc}
 c70:	00000c05 	.word	0x00000c05
 c74:	40000c00 	.word	0x40000c00

00000c78 <_system_dummy_init>:
 c78:	4770      	bx	lr
	...

00000c7c <system_init>:
 c7c:	b510      	push	{r4, lr}
 c7e:	4b05      	ldr	r3, [pc, #20]	; (c94 <system_init+0x18>)
 c80:	4798      	blx	r3
 c82:	4b05      	ldr	r3, [pc, #20]	; (c98 <system_init+0x1c>)
 c84:	4798      	blx	r3
 c86:	4b05      	ldr	r3, [pc, #20]	; (c9c <system_init+0x20>)
 c88:	4798      	blx	r3
 c8a:	4b05      	ldr	r3, [pc, #20]	; (ca0 <system_init+0x24>)
 c8c:	4798      	blx	r3
 c8e:	4b05      	ldr	r3, [pc, #20]	; (ca4 <system_init+0x28>)
 c90:	4798      	blx	r3
 c92:	bd10      	pop	{r4, pc}
 c94:	00000a35 	.word	0x00000a35
 c98:	000008f1 	.word	0x000008f1
 c9c:	00000c79 	.word	0x00000c79
 ca0:	0000020d 	.word	0x0000020d
 ca4:	00000c79 	.word	0x00000c79

00000ca8 <Dummy_Handler>:
 ca8:	e7fe      	b.n	ca8 <Dummy_Handler>
	...

00000cac <Reset_Handler>:
 cac:	4821      	ldr	r0, [pc, #132]	; (d34 <Reset_Handler+0x88>)
 cae:	4922      	ldr	r1, [pc, #136]	; (d38 <Reset_Handler+0x8c>)
 cb0:	b570      	push	{r4, r5, r6, lr}
 cb2:	4288      	cmp	r0, r1
 cb4:	d004      	beq.n	cc0 <Reset_Handler+0x14>
 cb6:	2300      	movs	r3, #0
 cb8:	4c20      	ldr	r4, [pc, #128]	; (d3c <Reset_Handler+0x90>)
 cba:	18ca      	adds	r2, r1, r3
 cbc:	42a2      	cmp	r2, r4
 cbe:	d332      	bcc.n	d26 <Reset_Handler+0x7a>
 cc0:	2100      	movs	r1, #0
 cc2:	4b1f      	ldr	r3, [pc, #124]	; (d40 <Reset_Handler+0x94>)
 cc4:	4a1f      	ldr	r2, [pc, #124]	; (d44 <Reset_Handler+0x98>)
 cc6:	4293      	cmp	r3, r2
 cc8:	d331      	bcc.n	d2e <Reset_Handler+0x82>
 cca:	21ff      	movs	r1, #255	; 0xff
 ccc:	4b1e      	ldr	r3, [pc, #120]	; (d48 <Reset_Handler+0x9c>)
 cce:	4a1f      	ldr	r2, [pc, #124]	; (d4c <Reset_Handler+0xa0>)
 cd0:	438b      	bics	r3, r1
 cd2:	6093      	str	r3, [r2, #8]
 cd4:	2202      	movs	r2, #2
 cd6:	250c      	movs	r5, #12
 cd8:	2408      	movs	r4, #8
 cda:	2630      	movs	r6, #48	; 0x30
 cdc:	4b1c      	ldr	r3, [pc, #112]	; (d50 <Reset_Handler+0xa4>)
 cde:	481d      	ldr	r0, [pc, #116]	; (d54 <Reset_Handler+0xa8>)
 ce0:	625a      	str	r2, [r3, #36]	; 0x24
 ce2:	78c3      	ldrb	r3, [r0, #3]
 ce4:	39fc      	subs	r1, #252	; 0xfc
 ce6:	438b      	bics	r3, r1
 ce8:	4313      	orrs	r3, r2
 cea:	70c3      	strb	r3, [r0, #3]
 cec:	78c3      	ldrb	r3, [r0, #3]
 cee:	43ab      	bics	r3, r5
 cf0:	4323      	orrs	r3, r4
 cf2:	70c3      	strb	r3, [r0, #3]
 cf4:	4b18      	ldr	r3, [pc, #96]	; (d58 <Reset_Handler+0xac>)
 cf6:	7b98      	ldrb	r0, [r3, #14]
 cf8:	43b0      	bics	r0, r6
 cfa:	0006      	movs	r6, r0
 cfc:	2020      	movs	r0, #32
 cfe:	4330      	orrs	r0, r6
 d00:	7398      	strb	r0, [r3, #14]
 d02:	7b98      	ldrb	r0, [r3, #14]
 d04:	43a8      	bics	r0, r5
 d06:	4304      	orrs	r4, r0
 d08:	739c      	strb	r4, [r3, #14]
 d0a:	7b98      	ldrb	r0, [r3, #14]
 d0c:	4388      	bics	r0, r1
 d0e:	4302      	orrs	r2, r0
 d10:	739a      	strb	r2, [r3, #14]
 d12:	2380      	movs	r3, #128	; 0x80
 d14:	4a11      	ldr	r2, [pc, #68]	; (d5c <Reset_Handler+0xb0>)
 d16:	6851      	ldr	r1, [r2, #4]
 d18:	430b      	orrs	r3, r1
 d1a:	6053      	str	r3, [r2, #4]
 d1c:	4b10      	ldr	r3, [pc, #64]	; (d60 <Reset_Handler+0xb4>)
 d1e:	4798      	blx	r3
 d20:	4b10      	ldr	r3, [pc, #64]	; (d64 <Reset_Handler+0xb8>)
 d22:	4798      	blx	r3
 d24:	e7fe      	b.n	d24 <Reset_Handler+0x78>
 d26:	58c5      	ldr	r5, [r0, r3]
 d28:	3304      	adds	r3, #4
 d2a:	6015      	str	r5, [r2, #0]
 d2c:	e7c5      	b.n	cba <Reset_Handler+0xe>
 d2e:	c302      	stmia	r3!, {r1}
 d30:	e7c9      	b.n	cc6 <Reset_Handler+0x1a>
 d32:	46c0      	nop			; (mov r8, r8)
 d34:	00000e5c 	.word	0x00000e5c
 d38:	20000000 	.word	0x20000000
 d3c:	20000008 	.word	0x20000008
 d40:	20000008 	.word	0x20000008
 d44:	200001c0 	.word	0x200001c0
 d48:	00000000 	.word	0x00000000
 d4c:	e000ed00 	.word	0xe000ed00
 d50:	410070fc 	.word	0x410070fc
 d54:	41005000 	.word	0x41005000
 d58:	41004800 	.word	0x41004800
 d5c:	41004000 	.word	0x41004000
 d60:	00000de5 	.word	0x00000de5
 d64:	00000d69 	.word	0x00000d69

00000d68 <main>:
 d68:	b570      	push	{r4, r5, r6, lr}
 d6a:	4b06      	ldr	r3, [pc, #24]	; (d84 <main+0x1c>)
 d6c:	2680      	movs	r6, #128	; 0x80
 d6e:	24fa      	movs	r4, #250	; 0xfa
 d70:	4798      	blx	r3
 d72:	4d05      	ldr	r5, [pc, #20]	; (d88 <main+0x20>)
 d74:	02b6      	lsls	r6, r6, #10
 d76:	00a4      	lsls	r4, r4, #2
 d78:	61ee      	str	r6, [r5, #28]
 d7a:	0020      	movs	r0, r4
 d7c:	4b03      	ldr	r3, [pc, #12]	; (d8c <main+0x24>)
 d7e:	4798      	blx	r3
 d80:	e7fa      	b.n	d78 <main+0x10>
 d82:	46c0      	nop			; (mov r8, r8)
 d84:	00000c7d 	.word	0x00000c7d
 d88:	41004400 	.word	0x41004400
 d8c:	000008c5 	.word	0x000008c5

00000d90 <__gnu_thumb1_case_uqi>:
 d90:	b402      	push	{r1}
 d92:	4671      	mov	r1, lr
 d94:	0849      	lsrs	r1, r1, #1
 d96:	0049      	lsls	r1, r1, #1
 d98:	5c09      	ldrb	r1, [r1, r0]
 d9a:	0049      	lsls	r1, r1, #1
 d9c:	448e      	add	lr, r1
 d9e:	bc02      	pop	{r1}
 da0:	4770      	bx	lr
 da2:	46c0      	nop			; (mov r8, r8)

00000da4 <__ctzsi2>:
 da4:	4241      	negs	r1, r0
 da6:	4008      	ands	r0, r1
 da8:	211c      	movs	r1, #28
 daa:	2301      	movs	r3, #1
 dac:	041b      	lsls	r3, r3, #16
 dae:	4298      	cmp	r0, r3
 db0:	d301      	bcc.n	db6 <__ctzsi2+0x12>
 db2:	0c00      	lsrs	r0, r0, #16
 db4:	3910      	subs	r1, #16
 db6:	0a1b      	lsrs	r3, r3, #8
 db8:	4298      	cmp	r0, r3
 dba:	d301      	bcc.n	dc0 <__ctzsi2+0x1c>
 dbc:	0a00      	lsrs	r0, r0, #8
 dbe:	3908      	subs	r1, #8
 dc0:	091b      	lsrs	r3, r3, #4
 dc2:	4298      	cmp	r0, r3
 dc4:	d301      	bcc.n	dca <__ctzsi2+0x26>
 dc6:	0900      	lsrs	r0, r0, #4
 dc8:	3904      	subs	r1, #4
 dca:	a202      	add	r2, pc, #8	; (adr r2, dd4 <__ctzsi2+0x30>)
 dcc:	5c10      	ldrb	r0, [r2, r0]
 dce:	1a40      	subs	r0, r0, r1
 dd0:	4770      	bx	lr
 dd2:	46c0      	nop			; (mov r8, r8)
 dd4:	1d1d1c1b 	.word	0x1d1d1c1b
 dd8:	1e1e1e1e 	.word	0x1e1e1e1e
 ddc:	1f1f1f1f 	.word	0x1f1f1f1f
 de0:	1f1f1f1f 	.word	0x1f1f1f1f

00000de4 <__libc_init_array>:
 de4:	b570      	push	{r4, r5, r6, lr}
 de6:	2600      	movs	r6, #0
 de8:	4d0c      	ldr	r5, [pc, #48]	; (e1c <__libc_init_array+0x38>)
 dea:	4c0d      	ldr	r4, [pc, #52]	; (e20 <__libc_init_array+0x3c>)
 dec:	1b64      	subs	r4, r4, r5
 dee:	10a4      	asrs	r4, r4, #2
 df0:	42a6      	cmp	r6, r4
 df2:	d109      	bne.n	e08 <__libc_init_array+0x24>
 df4:	2600      	movs	r6, #0
 df6:	f000 f821 	bl	e3c <_init>
 dfa:	4d0a      	ldr	r5, [pc, #40]	; (e24 <__libc_init_array+0x40>)
 dfc:	4c0a      	ldr	r4, [pc, #40]	; (e28 <__libc_init_array+0x44>)
 dfe:	1b64      	subs	r4, r4, r5
 e00:	10a4      	asrs	r4, r4, #2
 e02:	42a6      	cmp	r6, r4
 e04:	d105      	bne.n	e12 <__libc_init_array+0x2e>
 e06:	bd70      	pop	{r4, r5, r6, pc}
 e08:	00b3      	lsls	r3, r6, #2
 e0a:	58eb      	ldr	r3, [r5, r3]
 e0c:	4798      	blx	r3
 e0e:	3601      	adds	r6, #1
 e10:	e7ee      	b.n	df0 <__libc_init_array+0xc>
 e12:	00b3      	lsls	r3, r6, #2
 e14:	58eb      	ldr	r3, [r5, r3]
 e16:	4798      	blx	r3
 e18:	3601      	adds	r6, #1
 e1a:	e7f2      	b.n	e02 <__libc_init_array+0x1e>
 e1c:	00000e48 	.word	0x00000e48
 e20:	00000e48 	.word	0x00000e48
 e24:	00000e48 	.word	0x00000e48
 e28:	00000e4c 	.word	0x00000e4c

00000e2c <_usb_device_irq_bits>:
 e2c:	00080004 00800070 01000001 00000200     ....p...........

00000e3c <_init>:
 e3c:	b5f8      	push	{r3, r4, r5, r6, r7, lr}
 e3e:	46c0      	nop			; (mov r8, r8)
 e40:	bcf8      	pop	{r3, r4, r5, r6, r7}
 e42:	bc08      	pop	{r3}
 e44:	469e      	mov	lr, r3
 e46:	4770      	bx	lr

00000e48 <__init_array_start>:
 e48:	000000dd 	.word	0x000000dd

00000e4c <_fini>:
 e4c:	b5f8      	push	{r3, r4, r5, r6, r7, lr}
 e4e:	46c0      	nop			; (mov r8, r8)
 e50:	bcf8      	pop	{r3, r4, r5, r6, r7}
 e52:	bc08      	pop	{r3}
 e54:	469e      	mov	lr, r3
 e56:	4770      	bx	lr

00000e58 <__fini_array_start>:
 e58:	000000b5 	.word	0x000000b5
